; Function Attrs: mustprogress uwtable
define internal void @_ZL25pj_deformation_reverse_3d6PJ_XYZP8PJconsts(ptr dead_on_unwind noalias writable writeonly sret(%struct.PJ_LPZ) align 8 captures(none) initializes((0, 24)) %0, ptr noundef readonly byval(%struct.PJ_XYZ) align 8 captures(none) %1, ptr noundef %2) #0 {
  %.sroa.0 = alloca [4 x double], align 8
  %4 = getelementptr inbounds nuw i8, ptr %2, i64 88
  %5 = load ptr, ptr %4, align 8, !tbaa !40
  call void @llvm.lifetime.start.p0(i64 32, ptr nonnull %.sroa.0)
  call void @llvm.memcpy.p0.p0.i64(ptr noundef nonnull align 8 dereferenceable(24) %.sroa.0, ptr noundef nonnull align 8 dereferenceable(24) %1, i64 24, i1 false), !tbaa.struct !91
  %6 = load double, ptr %5, align 8, !tbaa !76
  %7 = fcmp oeq double %6, 0x7FF0000000000000
  br i1 %7, label %8, label %9

8:                                                ; preds = %3
  call void @_Z16proj_coord_errorv(ptr dead_on_unwind nonnull writable sret(%union.PJ_COORD) align 8 %.sroa.0)
  call void (ptr, ptr, ...) @_Z14proj_log_debugP8PJconstsPKcz(ptr noundef nonnull %2, ptr noundef nonnull @.str.27)
  br label %10

9:                                                ; preds = %3
  call fastcc void @_ZL28pj_deformation_reverse_shiftP8PJconstsRK6PJ_XYZd(ptr dead_on_unwind noalias writable align 8 %.sroa.0, ptr noundef nonnull %2, ptr noundef nonnull align 8 dereferenceable(24) %1, double noundef %6)
  br label %10

10:                                               ; preds = %9, %8
  call void @llvm.memcpy.p0.p0.i64(ptr noundef nonnull align 8 dereferenceable(24) %0, ptr noundef nonnull align 8 dereferenceable(24) %.sroa.0, i64 24, i1 false)
  call void @llvm.lifetime.end.p0(i64 32, ptr nonnull %.sroa.0)
  ret void
}